; Function Attrs: nounwind uwtable
define dso_local noundef i32 @lua_setmetatable(ptr noundef %0, i32 noundef %1) local_unnamed_addr #2 {
  %3 = icmp sgt i32 %1, 0
  br i1 %3, label %4, label %12

4:                                                ; preds = %2
  %5 = getelementptr inbounds nuw i8, ptr %0, i64 24
  %6 = load ptr, ptr %5, align 8, !tbaa !21
  %7 = zext nneg i32 %1 to i64
  %8 = getelementptr %struct.lua_TValue, ptr %6, i64 %7
  %9 = getelementptr i8, ptr %8, i64 -16
  %10 = getelementptr inbounds nuw i8, ptr %0, i64 16
  %11 = load ptr, ptr %10, align 8, !tbaa !4
  %.not28.i = icmp ult ptr %9, %11
  %.luaO_nilobject_.i = select i1 %.not28.i, ptr %9, ptr @luaO_nilobject_
  br label %index2adr.exit

12:                                               ; preds = %2
  %13 = icmp sgt i32 %1, -10000
  br i1 %13, label %14, label %19

14:                                               ; preds = %12
  %15 = getelementptr inbounds nuw i8, ptr %0, i64 16
  %16 = load ptr, ptr %15, align 8, !tbaa !4
  %17 = sext i32 %1 to i64
  %18 = getelementptr inbounds %struct.lua_TValue, ptr %16, i64 %17
  br label %index2adr.exit

19:                                               ; preds = %12
  switch i32 %1, label %36 [
    i32 -10000, label %20
    i32 -10001, label %24
    i32 -10002, label %34
  ]

20:                                               ; preds = %19
  %21 = getelementptr inbounds nuw i8, ptr %0, i64 32
  %22 = load ptr, ptr %21, align 8, !tbaa !29
  %23 = getelementptr inbounds nuw i8, ptr %22, i64 160
  br label %index2adr.exit

24:                                               ; preds = %19
  %25 = getelementptr inbounds nuw i8, ptr %0, i64 40
  %26 = load ptr, ptr %25, align 8, !tbaa !23
  %27 = getelementptr inbounds nuw i8, ptr %26, i64 8
  %28 = load ptr, ptr %27, align 8, !tbaa !41
  %29 = load ptr, ptr %28, align 8, !tbaa !19
  %30 = getelementptr inbounds nuw i8, ptr %0, i64 136
  %31 = getelementptr inbounds nuw i8, ptr %29, i64 24
  %32 = load ptr, ptr %31, align 8, !tbaa !19
  store ptr %32, ptr %30, align 8, !tbaa !19
  %33 = getelementptr inbounds nuw i8, ptr %0, i64 144
  store i32 5, ptr %33, align 8, !tbaa !20
  br label %index2adr.exit

34:                                               ; preds = %19
  %35 = getelementptr inbounds nuw i8, ptr %0, i64 120
  br label %index2adr.exit

36:                                               ; preds = %19
  %37 = getelementptr inbounds nuw i8, ptr %0, i64 40
  %38 = load ptr, ptr %37, align 8, !tbaa !23
  %39 = getelementptr inbounds nuw i8, ptr %38, i64 8
  %40 = load ptr, ptr %39, align 8, !tbaa !41
  %41 = load ptr, ptr %40, align 8, !tbaa !19
  %42 = sub nuw nsw i32 -10002, %1
  %43 = getelementptr inbounds nuw i8, ptr %41, i64 11
  %44 = load i8, ptr %43, align 1, !tbaa !19
  %45 = zext i8 %44 to i32
  %.not.i = icmp samesign ugt i32 %42, %45
  %46 = getelementptr inbounds nuw i8, ptr %41, i64 40
  %47 = sub nuw nsw i32 -10003, %1
  %48 = zext nneg i32 %47 to i64
  %49 = getelementptr inbounds nuw [1 x %struct.lua_TValue], ptr %46, i64 0, i64 %48
  %50 = select i1 %.not.i, ptr @luaO_nilobject_, ptr %49
  br label %index2adr.exit

index2adr.exit:                                   ; preds = %4, %14, %20, %24, %34, %36
  %.1.i = phi ptr [ %.luaO_nilobject_.i, %4 ], [ %18, %14 ], [ %50, %36 ], [ %35, %34 ], [ %30, %24 ], [ %23, %20 ]
  %51 = getelementptr inbounds nuw i8, ptr %0, i64 16
  %52 = load ptr, ptr %51, align 8, !tbaa !4
  %53 = getelementptr inbounds i8, ptr %52, i64 -8
  %54 = load i32, ptr %53, align 8, !tbaa !20
  %55 = icmp eq i32 %54, 0
  br i1 %55, label %59, label %56

56:                                               ; preds = %index2adr.exit
  %57 = getelementptr inbounds i8, ptr %52, i64 -16
  %58 = load ptr, ptr %57, align 8, !tbaa !19
  br label %59

59:                                               ; preds = %index2adr.exit, %56
  %.0 = phi ptr [ %58, %56 ], [ null, %index2adr.exit ]
  %60 = getelementptr inbounds nuw i8, ptr %.1.i, i64 8
  %61 = load i32, ptr %60, align 8, !tbaa !20
  switch i32 %61, label %93 [
    i32 5, label %62
    i32 7, label %80
  ]

62:                                               ; preds = %59
  %63 = load ptr, ptr %.1.i, align 8, !tbaa !19
  %64 = getelementptr inbounds nuw i8, ptr %63, i64 12
  %65 = load i32, ptr %64, align 4, !tbaa !19
  %.not27 = icmp eq i32 %65, 0
  br i1 %.not27, label %67, label %66

66:                                               ; preds = %62
  tail call void (ptr, ptr, ...) @luaG_runerror(ptr noundef nonnull %0, ptr noundef nonnull @.str.2) #14
  %.pre = load ptr, ptr %.1.i, align 8, !tbaa !19
  br label %67

67:                                               ; preds = %66, %62
  %68 = phi ptr [ %.pre, %66 ], [ %63, %62 ]
  %69 = getelementptr inbounds nuw i8, ptr %68, i64 24
  store ptr %.0, ptr %69, align 8, !tbaa !19
  %.not28 = icmp eq ptr %.0, null
  br i1 %.not28, label %99, label %70

70:                                               ; preds = %67
  %71 = getelementptr inbounds nuw i8, ptr %.0, i64 9
  %72 = load i8, ptr %71, align 1, !tbaa !19
  %73 = and i8 %72, 3
  %.not29 = icmp eq i8 %73, 0
  br i1 %.not29, label %99, label %74

74:                                               ; preds = %70
  %75 = load ptr, ptr %.1.i, align 8, !tbaa !19
  %76 = getelementptr inbounds nuw i8, ptr %75, i64 9
  %77 = load i8, ptr %76, align 1, !tbaa !19
  %78 = and i8 %77, 4
  %.not30 = icmp eq i8 %78, 0
  br i1 %.not30, label %99, label %79

79:                                               ; preds = %74
  tail call void @luaC_barrierback(ptr noundef nonnull %0, ptr noundef nonnull %75) #14
  br label %99

80:                                               ; preds = %59
  %81 = load ptr, ptr %.1.i, align 8, !tbaa !19
  %82 = getelementptr inbounds nuw i8, ptr %81, i64 16
  store ptr %.0, ptr %82, align 8, !tbaa !19
  %.not = icmp eq ptr %.0, null
  br i1 %.not, label %99, label %83

83:                                               ; preds = %80
  %84 = getelementptr inbounds nuw i8, ptr %.0, i64 9
  %85 = load i8, ptr %84, align 1, !tbaa !19
  %86 = and i8 %85, 3
  %.not25 = icmp eq i8 %86, 0
  br i1 %.not25, label %99, label %87

87:                                               ; preds = %83
  %88 = load ptr, ptr %.1.i, align 8, !tbaa !19
  %89 = getelementptr inbounds nuw i8, ptr %88, i64 9
  %90 = load i8, ptr %89, align 1, !tbaa !19
  %91 = and i8 %90, 4
  %.not26 = icmp eq i8 %91, 0
  br i1 %.not26, label %99, label %92

92:                                               ; preds = %87
  tail call void @luaC_barrierf(ptr noundef nonnull %0, ptr noundef nonnull %88, ptr noundef nonnull %.0) #14
  br label %99

93:                                               ; preds = %59
  %94 = getelementptr inbounds nuw i8, ptr %0, i64 32
  %95 = load ptr, ptr %94, align 8, !tbaa !29
  %96 = getelementptr inbounds nuw i8, ptr %95, i64 224
  %97 = sext i32 %61 to i64
  %98 = getelementptr inbounds [9 x ptr], ptr %96, i64 0, i64 %97
  store ptr %.0, ptr %98, align 8, !tbaa !49
  br label %99

99:                                               ; preds = %80, %92, %87, %83, %67, %79, %74, %70, %93
  %100 = load ptr, ptr %51, align 8, !tbaa !4
  %101 = getelementptr inbounds i8, ptr %100, i64 -16
  store ptr %101, ptr %51, align 8, !tbaa !4
  ret i32 1
}